#include <math.h>
#include <stdio.h>
#include <stdlib.h>
#include <string.h>

int max(int b[10],int n)
{
	int i,max3=b[0],max2=0;
	for(i=0;i<n;i++)
		if(b[i]>max3)
		{
			max3=b[i];
		    max2=i;
		}
	return(max2);
}
void main()
{
	int m,n,i,j,sum=0,a[10][10],k,ap=0;
	scanf("%d,%d",&m,&n);
	for(i=0;i<m;i++)
		for(k=0;k<n;k++)
			scanf("%d",&a[i][k]);
	for(i=0;i<m;)
	{
		j=max(a[i],n);
		for(k=0;k<m;k++)
			if(a[k][j]<a[i][j])
				goto a1;
		printf("%d+%d",i,j);
		ap++;
		goto a2;
a1:     i++;
	}
a2:	if(ap==0)
	   printf("No");
}